target datalayout = "e-m:e-p270:32:32-p271:32:32-p272:64:64-i64:64-i128:128-f80:128-n8:16:32:64-S128"
target triple = "x86_64-pc-linux-gnu"

%"class.cv::utils::trace::details::Region" = type <{ ptr, i32, [4 x i8] }>

; Function Attrs: mustprogress uwtable
define void @_ZN2cv15groupRectanglesERSt6vectorINS_5Rect_IiEESaIS2_EERS0_IiSaIiEEid(ptr noundef nonnull align 8 dereferenceable(24) %0, ptr noundef nonnull align 8 dereferenceable(24) %1, i32 noundef %2, double noundef %3) #4 personality ptr @__gxx_personality_v0 {
  %5 = alloca ptr, align 8
  %6 = alloca ptr, align 8
  %7 = alloca i32, align 4
  %8 = alloca double, align 8
  %9 = alloca %"class.cv::utils::trace::details::Region", align 8
  %10 = alloca ptr, align 8
  %11 = alloca i32, align 4
  store ptr %0, ptr %5, align 8, !tbaa !3
  store ptr %1, ptr %6, align 8, !tbaa !12
  store i32 %2, ptr %7, align 4, !tbaa !8
  store double %3, ptr %8, align 8, !tbaa !10
  call void @llvm.lifetime.start.p0(i64 16, ptr %9) #3
  call void @_ZN2cv5utils5trace7details6RegionC1ERKNS3_21LocationStaticStorageE(ptr noundef nonnull align 8 dereferenceable(12) %9, ptr noundef nonnull align 8 dereferenceable(32) @_ZZN2cv15groupRectanglesERSt6vectorINS_5Rect_IiEESaIS2_EERS0_IiSaIiEEidE25__cv_trace_location_fn374)
  %12 = load ptr, ptr %5, align 8, !tbaa !3
  %13 = load i32, ptr %7, align 4, !tbaa !8
  %14 = load double, ptr %8, align 8, !tbaa !10
  %15 = load ptr, ptr %6, align 8, !tbaa !12
  invoke void @_ZN2cv15groupRectanglesERSt6vectorINS_5Rect_IiEESaIS2_EEidPS0_IiSaIiEEPS0_IdSaIdEE(ptr noundef nonnull align 8 dereferenceable(24) %12, i32 noundef %13, double noundef %14, ptr noundef %15, ptr noundef null)
          to label %16 unwind label %17

16:                                               ; preds = %4
  call void @_ZN2cv5utils5trace7details6RegionD2Ev(ptr noundef nonnull align 8 dereferenceable(12) %9) #3
  call void @llvm.lifetime.end.p0(i64 16, ptr %9) #3
  ret void

17:                                               ; preds = %4
  %18 = landingpad { ptr, i32 }
          cleanup
  %19 = extractvalue { ptr, i32 } %18, 0
  store ptr %19, ptr %10, align 8
  %20 = extractvalue { ptr, i32 } %18, 1
  store i32 %20, ptr %11, align 4
  call void @_ZN2cv5utils5trace7details6RegionD2Ev(ptr noundef nonnull align 8 dereferenceable(12) %9) #3
  call void @llvm.lifetime.end.p0(i64 16, ptr %9) #3
  br label %21

21:                                               ; preds = %17
  %22 = load ptr, ptr %10, align 8
  %23 = load i32, ptr %11, align 4
  %24 = insertvalue { ptr, i32 } poison, ptr %22, 0
  %25 = insertvalue { ptr, i32 } %24, i32 %23, 1
  resume { ptr, i32 } %25
}