; Function Attrs: mustprogress uwtable
define void @_ZN2cv15groupRectanglesERSt6vectorINS_5Rect_IiEESaIS2_EERS0_IiSaIiEEid(ptr noundef nonnull align 8 dereferenceable(24) %0, ptr noundef nonnull align 8 dereferenceable(24) %1, i32 noundef %2, double noundef %3) local_unnamed_addr #5 personality ptr @__gxx_personality_v0 {
  %5 = alloca %"class.cv::utils::trace::details::Region", align 8
  call void @llvm.lifetime.start.p0(i64 16, ptr nonnull %5) #32
  call void @_ZN2cv5utils5trace7details6RegionC1ERKNS3_21LocationStaticStorageE(ptr noundef nonnull align 8 dereferenceable(12) %5, ptr noundef nonnull align 8 dereferenceable(32) @_ZZN2cv15groupRectanglesERSt6vectorINS_5Rect_IiEESaIS2_EERS0_IiSaIiEEidE25__cv_trace_location_fn374)
  invoke void @_ZN2cv15groupRectanglesERSt6vectorINS_5Rect_IiEESaIS2_EEidPS0_IiSaIiEEPS0_IdSaIdEE(ptr noundef nonnull align 8 dereferenceable(24) %0, i32 noundef %2, double noundef %3, ptr noundef nonnull %1, ptr noundef null)
          to label %6 unwind label %13

6:                                                ; preds = %4
  %7 = getelementptr inbounds nuw i8, ptr %5, i64 8
  %8 = load i32, ptr %7, align 8, !tbaa !47
  %.not.i = icmp eq i32 %8, 0
  br i1 %.not.i, label %_ZN2cv5utils5trace7details6RegionD2Ev.exit, label %9

9:                                                ; preds = %6
  invoke void @_ZN2cv5utils5trace7details6Region7destroyEv(ptr noundef nonnull align 8 dereferenceable(12) %5)
          to label %_ZN2cv5utils5trace7details6RegionD2Ev.exit unwind label %10

10:                                               ; preds = %9
  %11 = landingpad { ptr, i32 }
          catch ptr null
  %12 = extractvalue { ptr, i32 } %11, 0
  call void @__clang_call_terminate(ptr %12) #36
  unreachable

_ZN2cv5utils5trace7details6RegionD2Ev.exit:       ; preds = %6, %9
  call void @llvm.lifetime.end.p0(i64 16, ptr nonnull %5) #32
  ret void

13:                                               ; preds = %4
  %14 = landingpad { ptr, i32 }
          cleanup
  call void @_ZN2cv5utils5trace7details6RegionD2Ev(ptr noundef nonnull align 8 dereferenceable(12) %5) #32
  call void @llvm.lifetime.end.p0(i64 16, ptr nonnull %5) #32
  resume { ptr, i32 } %14
}